Certificate:
    Data:
        Version: 3 (0x2)
        Serial Number: 2 (0x2)
    Signature Algorithm: sha256WithRSAEncryption
        Issuer: C=CN, ST=TW, L=Taipei, O=Askey, OU=Askey, CN=Askey CA/name=EasyRSA/emailAddress=mail@Askey
        Validity
            Not Before: Mar 23 18:46:29 2022 GMT
            Not After : Mar 20 18:46:29 2032 GMT
        Subject: C=CN, ST=TW, L=Taipei, O=Askey, OU=Askey, CN=client/name=EasyRSA/emailAddress=mail@Askey
        Subject Public Key Info:
            Public Key Algorithm: rsaEncryption
                Public-Key: (1024 bit)
                Modulus:
                    00:be:6f:8c:87:7a:a4:b2:48:31:5d:fb:b7:4a:61:
                    2c:0c:f6:8e:e0:c7:88:8d:98:22:b3:d3:9e:93:d6:
                    ce:02:d3:8b:d5:9a:e0:b1:58:04:d1:0d:32:e1:02:
                    be:cd:eb:66:29:11:b7:ef:9e:c6:4a:8a:0d:0e:48:
                    26:9f:40:61:3f:8a:86:d5:f8:6d:8c:88:13:00:69:
                    fe:3b:6a:a6:88:b4:a4:c4:ed:f9:99:81:a5:11:3a:
                    11:39:2a:40:96:d4:63:c3:44:23:fb:b5:98:f9:b5:
                    94:1b:57:11:77:f1:c7:e5:b5:14:4a:9b:74:38:95:
                    86:58:f0:32:64:f2:65:3c:b1
                Exponent: 65537 (0x10001)
        X509v3 extensions:
            X509v3 Basic Constraints: 
                CA:FALSE
            Netscape Comment: 
                Easy-RSA Generated Certificate
            X509v3 Subject Key Identifier: 
                89:71:7D:E9:D5:4E:E3:58:F4:A4:A5:04:58:23:98:96:9D:FD:95:9A
            X509v3 Authority Key Identifier: 
                keyid:BC:D3:7B:F9:9A:0D:01:30:22:ED:BF:FF:82:47:B0:21:A8:74:79:5B
                DirName:/C=CN/ST=TW/L=Taipei/O=Askey/OU=Askey/CN=Askey CA/name=EasyRSA/emailAddress=mail@Askey
                serial:FC:49:4E:D3:B7:4E:C4:3B

            X509v3 Extended Key Usage: 
                TLS Web Client Authentication
            X509v3 Key Usage: 
                Digital Signature
    Signature Algorithm: sha256WithRSAEncryption
         53:5b:ad:22:66:27:6f:c6:60:bf:02:40:45:9a:0a:00:b2:dd:
         b7:04:a2:ba:9f:22:7e:30:98:a6:8b:dc:63:8d:89:46:d2:90:
         61:d5:19:d2:b8:51:cd:14:ee:eb:bb:ba:99:a0:a3:14:dd:59:
         a0:c7:e2:ea:6b:6c:da:15:33:ef:a0:ef:88:df:a7:fc:bf:e2:
         00:26:8a:c6:e8:30:98:e2:50:16:a1:0f:5c:2a:5b:d1:ca:06:
         67:fd:00:6b:cc:db:da:4d:94:6f:e3:5e:3d:aa:91:4f:6a:70:
         2f:7a:4d:af:e8:bf:19:2a:68:c1:c0:7a:67:66:78:80:fa:2e:
         1f:c8
-----BEGIN CERTIFICATE-----
MIID0DCCAzmgAwIBAgIBAjANBgkqhkiG9w0BAQsFADCBizELMAkGA1UEBhMCQ04x
CzAJBgNVBAgTAlRXMQ8wDQYDVQQHEwZUYWlwZWkxDjAMBgNVBAoTBUFza2V5MQ4w
DAYDVQQLEwVBc2tleTERMA8GA1UEAxMIQXNrZXkgQ0ExEDAOBgNVBCkTB0Vhc3lS
U0ExGTAXBgkqhkiG9w0BCQEWCm1haWxAQXNrZXkwHhcNMjIwMzIzMTg0NjI5WhcN
MzIwMzIwMTg0NjI5WjCBiTELMAkGA1UEBhMCQ04xCzAJBgNVBAgTAlRXMQ8wDQYD
VQQHEwZUYWlwZWkxDjAMBgNVBAoTBUFza2V5MQ4wDAYDVQQLEwVBc2tleTEPMA0G
A1UEAxMGY2xpZW50MRAwDgYDVQQpEwdFYXN5UlNBMRkwFwYJKoZIhvcNAQkBFgpt
YWlsQEFza2V5MIGfMA0GCSqGSIb3DQEBAQUAA4GNADCBiQKBgQC+b4yHeqSySDFd
+7dKYSwM9o7gx4iNmCKz056T1s4C04vVmuCxWATRDTLhAr7N62YpEbfvnsZKig0O
SCafQGE/iobV+G2MiBMAaf47aqaItKTE7fmZgaUROhE5KkCW1GPDRCP7tZj5tZQb
VxF38cfltRRKm3Q4lYZY8DJk8mU8sQIDAQABo4IBQjCCAT4wCQYDVR0TBAIwADAt
BglghkgBhvhCAQ0EIBYeRWFzeS1SU0EgR2VuZXJhdGVkIENlcnRpZmljYXRlMB0G
A1UdDgQWBBSJcX3p1U7jWPSkpQRYI5iWnf2VmjCBwAYDVR0jBIG4MIG1gBS803v5
mg0BMCLtv/+CR7AhqHR5W6GBkaSBjjCBizELMAkGA1UEBhMCQ04xCzAJBgNVBAgT
AlRXMQ8wDQYDVQQHEwZUYWlwZWkxDjAMBgNVBAoTBUFza2V5MQ4wDAYDVQQLEwVB
c2tleTERMA8GA1UEAxMIQXNrZXkgQ0ExEDAOBgNVBCkTB0Vhc3lSU0ExGTAXBgkq
hkiG9w0BCQEWCm1haWxAQXNrZXmCCQD8SU7Tt07EOzATBgNVHSUEDDAKBggrBgEF
BQcDAjALBgNVHQ8EBAMCB4AwDQYJKoZIhvcNAQELBQADgYEAU1utImYnb8ZgvwJA
RZoKALLdtwSiup8ifjCYpovcY42JRtKQYdUZ0rhRzRTu67u6maCjFN1ZoMfi6mts
2hUz76DviN+n/L/iACaKxugwmOJQFqEPXCpb0coGZ/0Aa8zb2k2Ub+NePaqRT2pw
L3pNr+i/GSpowcB6Z2Z4gPouH8g=
-----END CERTIFICATE-----
